; Function Attrs: mustprogress uwtable
define noundef nonnull align 8 dereferenceable(25) ptr @_ZNK3net22CryptoHandshakeMessage13GetSerializedEv(ptr noundef nonnull align 8 dereferenceable(72) %0) local_unnamed_addr #1 align 2 personality ptr @__gxx_personality_v0 {
  %2 = getelementptr inbounds nuw i8, ptr %0, i64 64
  %3 = load ptr, ptr %2, align 8, !tbaa !42
  %.not = icmp eq ptr %3, null
  br i1 %.not, label %4, label %_ZNSt10unique_ptrIN3net8QuicDataESt14default_deleteIS1_EE5resetEPS1_.exit

4:                                                ; preds = %1
  %5 = tail call noundef ptr @_ZN3net12CryptoFramer25ConstructHandshakeMessageERKNS_22CryptoHandshakeMessageE(ptr noundef nonnull align 8 dereferenceable(72) %0)
  %6 = load ptr, ptr %2, align 8, !tbaa !42
  store ptr %5, ptr %2, align 8, !tbaa !42
  %.not.i.i = icmp eq ptr %6, null
  br i1 %.not.i.i, label %_ZNSt10unique_ptrIN3net8QuicDataESt14default_deleteIS1_EE5resetEPS1_.exit, label %_ZNKSt14default_deleteIN3net8QuicDataEEclEPS1_.exit.i.i

_ZNKSt14default_deleteIN3net8QuicDataEEclEPS1_.exit.i.i: ; preds = %4
  %7 = load ptr, ptr %6, align 8, !tbaa !43
  %8 = getelementptr inbounds nuw i8, ptr %7, i64 8
  %9 = load ptr, ptr %8, align 8
  tail call void %9(ptr noundef nonnull align 8 dereferenceable(25) %6) #22
  %.pre = load ptr, ptr %2, align 8, !tbaa !42
  br label %_ZNSt10unique_ptrIN3net8QuicDataESt14default_deleteIS1_EE5resetEPS1_.exit

_ZNSt10unique_ptrIN3net8QuicDataESt14default_deleteIS1_EE5resetEPS1_.exit: ; preds = %_ZNKSt14default_deleteIN3net8QuicDataEEclEPS1_.exit.i.i, %4, %1
  %10 = phi ptr [ %.pre, %_ZNKSt14default_deleteIN3net8QuicDataEEclEPS1_.exit.i.i ], [ %5, %4 ], [ %3, %1 ]
  ret ptr %10
}